
main.elf:     file format elf32-littleriscv


Disassembly of section .text:

00010094 <main>:
   10094:	ff010113          	add	sp,sp,-16
   10098:	00112623          	sw	ra,12(sp)
   1009c:	018000ef          	jal	100b4 <run_matmul>
   100a0:	ffff                	.insn	2, 0xffff
   100a2:	0000                	.insn	2, 0x
   100a4:	00c12083          	lw	ra,12(sp)
   100a8:	00000513          	li	a0,0
   100ac:	01010113          	add	sp,sp,16
   100b0:	00008067          	ret

000100b4 <run_matmul>:
   100b4:	f3010113          	add	sp,sp,-208
   100b8:	0c812623          	sw	s0,204(sp)
   100bc:	0c912423          	sw	s1,200(sp)
   100c0:	000013b7          	lui	t2,0x1
   100c4:	00019eb7          	lui	t4,0x19
   100c8:	000214b7          	lui	s1,0x21
   100cc:	00011437          	lui	s0,0x11
   100d0:	0d212223          	sw	s2,196(sp)
   100d4:	0d312023          	sw	s3,192(sp)
   100d8:	000e8e93          	mv	t4,t4
   100dc:	00000293          	li	t0,0
   100e0:	00000f13          	li	t5,0
   100e4:	0d010893          	add	a7,sp,208
   100e8:	05010813          	add	a6,sp,80
   100ec:	00048493          	mv	s1,s1
   100f0:	00040413          	mv	s0,s0
   100f4:	08000f93          	li	t6,128
   100f8:	000019b7          	lui	s3,0x1
   100fc:	80038393          	add	t2,t2,-2048 # 800 <main-0xf894>
   10100:	02000913          	li	s2,32
   10104:	00048593          	mv	a1,s1
   10108:	00040e13          	mv	t3,s0
   1010c:	00000313          	li	t1,0
   10110:	01010693          	add	a3,sp,16
   10114:	000e8613          	mv	a2,t4
   10118:	ff068793          	add	a5,a3,-16
   1011c:	00060713          	mv	a4,a2
   10120:	00e7a023          	sw	a4,0(a5)
   10124:	00478793          	add	a5,a5,4
   10128:	00870713          	add	a4,a4,8
   1012c:	fed79ae3          	bne	a5,a3,10120 <run_matmul+0x6c>
   10130:	01078693          	add	a3,a5,16
   10134:	40060613          	add	a2,a2,1024
   10138:	fed810e3          	bne	a6,a3,10118 <run_matmul+0x64>
   1013c:	00080693          	mv	a3,a6
   10140:	000e0513          	mv	a0,t3
   10144:	00000613          	li	a2,0
   10148:	ff068793          	add	a5,a3,-16
   1014c:	00050713          	mv	a4,a0
   10150:	00e7a023          	sw	a4,0(a5)
   10154:	00478793          	add	a5,a5,4
   10158:	00870713          	add	a4,a4,8
   1015c:	fed79ae3          	bne	a5,a3,10150 <run_matmul+0x9c>
   10160:	20060613          	add	a2,a2,512
   10164:	80060713          	add	a4,a2,-2048
   10168:	40050513          	add	a0,a0,1024
   1016c:	01078693          	add	a3,a5,16
   10170:	fc071ce3          	bnez	a4,10148 <run_matmul+0x94>
   10174:	09010693          	add	a3,sp,144
   10178:	000f0613          	mv	a2,t5
   1017c:	00161713          	sll	a4,a2,0x1
   10180:	00b70733          	add	a4,a4,a1
   10184:	ff068793          	add	a5,a3,-16
   10188:	00e7a023          	sw	a4,0(a5)
   1018c:	00478793          	add	a5,a5,4
   10190:	00870713          	add	a4,a4,8
   10194:	fef69ae3          	bne	a3,a5,10188 <run_matmul+0xd4>
   10198:	01068693          	add	a3,a3,16
   1019c:	20060613          	add	a2,a2,512
   101a0:	fcd89ee3          	bne	a7,a3,1017c <run_matmul+0xc8>
   101a4:	00012503          	lw	a0,0(sp)
   101a8:	45400083          	lb	ra,1108(zero) # 454 <main-0xfc40>
   101ac:	04012503          	lw	a0,64(sp)
   101b0:	49400083          	lb	ra,1172(zero) # 494 <main-0xfc00>
   101b4:	08012503          	lw	a0,128(sp)
   101b8:	05400083          	lb	ra,84(zero) # 54 <main-0x10040>
   101bc:	05148073          	.insn	4, 0x05148073
   101c0:	04412503          	lw	a0,68(sp)
   101c4:	4d400083          	lb	ra,1236(zero) # 4d4 <main-0xfbc0>
   101c8:	08412503          	lw	a0,132(sp)
   101cc:	09400083          	lb	ra,148(zero) # 94 <main-0x10000>
   101d0:	0914c073          	.insn	4, 0x0914c073
   101d4:	04812503          	lw	a0,72(sp)
   101d8:	51400083          	lb	ra,1300(zero) # 514 <main-0xfb80>
   101dc:	08812503          	lw	a0,136(sp)
   101e0:	0d400083          	lb	ra,212(zero) # d4 <main-0xffc0>
   101e4:	0d150073          	.insn	4, 0x0d150073
   101e8:	04c12503          	lw	a0,76(sp)
   101ec:	55400083          	lb	ra,1364(zero) # 554 <main-0xfb40>
   101f0:	08c12503          	lw	a0,140(sp)
   101f4:	11400083          	lb	ra,276(zero) # 114 <main-0xff80>
   101f8:	11154073          	.insn	4, 0x11154073
   101fc:	01012503          	lw	a0,16(sp)
   10200:	59400083          	lb	ra,1428(zero) # 594 <main-0xfb00>
   10204:	09012503          	lw	a0,144(sp)
   10208:	15400083          	lb	ra,340(zero) # 154 <main-0xff40>
   1020c:	15648073          	.insn	4, 0x15648073
   10210:	09412503          	lw	a0,148(sp)
   10214:	19400083          	lb	ra,404(zero) # 194 <main-0xff00>
   10218:	1964c073          	.insn	4, 0x1964c073
   1021c:	09812503          	lw	a0,152(sp)
   10220:	1d400083          	lb	ra,468(zero) # 1d4 <main-0xfec0>
   10224:	1d650073          	.insn	4, 0x1d650073
   10228:	09c12503          	lw	a0,156(sp)
   1022c:	21400083          	lb	ra,532(zero) # 214 <main-0xfe80>
   10230:	21654073          	.insn	4, 0x21654073
   10234:	02012503          	lw	a0,32(sp)
   10238:	5d400083          	lb	ra,1492(zero) # 5d4 <main-0xfac0>
   1023c:	0a012503          	lw	a0,160(sp)
   10240:	25400083          	lb	ra,596(zero) # 254 <main-0xfe40>
   10244:	25748073          	.insn	4, 0x25748073
   10248:	0a412503          	lw	a0,164(sp)
   1024c:	29400083          	lb	ra,660(zero) # 294 <main-0xfe00>
   10250:	2974c073          	.insn	4, 0x2974c073
   10254:	0a812503          	lw	a0,168(sp)
   10258:	2d400083          	lb	ra,724(zero) # 2d4 <main-0xfdc0>
   1025c:	2d750073          	.insn	4, 0x2d750073
   10260:	0ac12503          	lw	a0,172(sp)
   10264:	31400083          	lb	ra,788(zero) # 314 <main-0xfd80>
   10268:	31754073          	.insn	4, 0x31754073
   1026c:	03012503          	lw	a0,48(sp)
   10270:	61400083          	lb	ra,1556(zero) # 614 <main-0xfa80>
   10274:	0b012503          	lw	a0,176(sp)
   10278:	35400083          	lb	ra,852(zero) # 354 <main-0xfd40>
   1027c:	35848073          	.insn	4, 0x35848073
   10280:	0b412503          	lw	a0,180(sp)
   10284:	39400083          	lb	ra,916(zero) # 394 <main-0xfd00>
   10288:	3984c073          	.insn	4, 0x3984c073
   1028c:	0b812503          	lw	a0,184(sp)
   10290:	3d400083          	lb	ra,980(zero) # 3d4 <main-0xfcc0>
   10294:	3d850073          	.insn	4, 0x3d850073
   10298:	0bc12503          	lw	a0,188(sp)
   1029c:	41400083          	lb	ra,1044(zero) # 414 <main-0xfc80>
   102a0:	41854073          	.insn	4, 0x41854073
   102a4:	00412503          	lw	a0,4(sp)
   102a8:	65400083          	lb	ra,1620(zero) # 654 <main-0xfa40>
   102ac:	05012503          	lw	a0,80(sp)
   102b0:	69400083          	lb	ra,1684(zero) # 694 <main-0xfa00>
   102b4:	05968173          	.insn	4, 0x05968173
   102b8:	05412503          	lw	a0,84(sp)
   102bc:	6d400083          	lb	ra,1748(zero) # 6d4 <main-0xf9c0>
   102c0:	0996c273          	.insn	4, 0x0996c273
   102c4:	05812503          	lw	a0,88(sp)
   102c8:	71400083          	lb	ra,1812(zero) # 714 <main-0xf980>
   102cc:	0d970373          	.insn	4, 0x0d970373
   102d0:	05c12503          	lw	a0,92(sp)
   102d4:	75400083          	lb	ra,1876(zero) # 754 <main-0xf940>
   102d8:	11974473          	.insn	4, 0x11974473
   102dc:	01412503          	lw	a0,20(sp)
   102e0:	79400083          	lb	ra,1940(zero) # 794 <main-0xf900>
   102e4:	15e68573          	.insn	4, 0x15e68573
   102e8:	19e6c673          	.insn	4, 0x19e6c673
   102ec:	1de70773          	.insn	4, 0x1de70773
   102f0:	21e74873          	.insn	4, 0x21e74873
   102f4:	02412503          	lw	a0,36(sp)
   102f8:	7d400083          	lb	ra,2004(zero) # 7d4 <main-0xf8c0>
   102fc:	25f68973          	.insn	4, 0x25f68973
   10300:	29f6ca73          	.insn	4, 0x29f6ca73
   10304:	2df70b73          	.insn	4, 0x2df70b73
   10308:	31f74c73          	.insn	4, 0x31f74c73
   1030c:	03412503          	lw	a0,52(sp)
   10310:	81400083          	lb	ra,-2028(zero) # fffff814 <__BSS_END__+0xfffd6814>
   10314:	36068d73          	.insn	4, 0x36068d73
   10318:	3a06ce73          	.insn	4, 0x3a06ce73
   1031c:	3e070f73          	.insn	4, 0x3e070f73
   10320:	42075073          	.insn	4, 0x42075073
   10324:	00812503          	lw	a0,8(sp)
   10328:	85400083          	lb	ra,-1964(zero) # fffff854 <__BSS_END__+0xfffd6854>
   1032c:	06012503          	lw	a0,96(sp)
   10330:	89400083          	lb	ra,-1900(zero) # fffff894 <__BSS_END__+0xfffd6894>
   10334:	06188173          	.insn	4, 0x06188173
   10338:	06412503          	lw	a0,100(sp)
   1033c:	8d400083          	lb	ra,-1836(zero) # fffff8d4 <__BSS_END__+0xfffd68d4>
   10340:	0a18c273          	.insn	4, 0x0a18c273
   10344:	06812503          	lw	a0,104(sp)
   10348:	91400083          	lb	ra,-1772(zero) # fffff914 <__BSS_END__+0xfffd6914>
   1034c:	0e190373          	.insn	4, 0x0e190373
   10350:	06c12503          	lw	a0,108(sp)
   10354:	95400083          	lb	ra,-1708(zero) # fffff954 <__BSS_END__+0xfffd6954>
   10358:	12194473          	.insn	4, 0x12194473
   1035c:	01812503          	lw	a0,24(sp)
   10360:	99400083          	lb	ra,-1644(zero) # fffff994 <__BSS_END__+0xfffd6994>
   10364:	16688573          	.insn	4, 0x16688573
   10368:	1a68c673          	.insn	4, 0x1a68c673
   1036c:	1e690773          	.insn	4, 0x1e690773
   10370:	22694873          	.insn	4, 0x22694873
   10374:	02812503          	lw	a0,40(sp)
   10378:	9d400083          	lb	ra,-1580(zero) # fffff9d4 <__BSS_END__+0xfffd69d4>
   1037c:	26788973          	.insn	4, 0x26788973
   10380:	2a78ca73          	.insn	4, 0x2a78ca73
   10384:	2e790b73          	.insn	4, 0x2e790b73
   10388:	32794c73          	.insn	4, 0x32794c73
   1038c:	03812503          	lw	a0,56(sp)
   10390:	a1400083          	lb	ra,-1516(zero) # fffffa14 <__BSS_END__+0xfffd6a14>
   10394:	36888d73          	.insn	4, 0x36888d73
   10398:	3a88ce73          	.insn	4, 0x3a88ce73
   1039c:	3e890f73          	.insn	4, 0x3e890f73
   103a0:	42895073          	.insn	4, 0x42895073
   103a4:	00c12503          	lw	a0,12(sp)
   103a8:	a5400083          	lb	ra,-1452(zero) # fffffa54 <__BSS_END__+0xfffd6a54>
   103ac:	07012503          	lw	a0,112(sp)
   103b0:	a9400083          	lb	ra,-1388(zero) # fffffa94 <__BSS_END__+0xfffd6a94>
   103b4:	069a8173          	.insn	4, 0x069a8173
   103b8:	08012503          	lw	a0,128(sp)
   103bc:	054000a3          	sb	s4,65(zero) # 41 <main-0x10053>
   103c0:	07412503          	lw	a0,116(sp)
   103c4:	ad400083          	lb	ra,-1324(zero) # fffffad4 <__BSS_END__+0xfffd6ad4>
   103c8:	0a9ac273          	.insn	4, 0x0a9ac273
   103cc:	08412503          	lw	a0,132(sp)
   103d0:	094000a3          	sb	s4,129(zero) # 81 <main-0x10013>
   103d4:	07812503          	lw	a0,120(sp)
   103d8:	b1400083          	lb	ra,-1260(zero) # fffffb14 <__BSS_END__+0xfffd6b14>
   103dc:	0e9b0373          	.insn	4, 0x0e9b0373
   103e0:	08812503          	lw	a0,136(sp)
   103e4:	0d4000a3          	sb	s4,193(zero) # c1 <main-0xffd3>
   103e8:	07c12503          	lw	a0,124(sp)
   103ec:	b5400083          	lb	ra,-1196(zero) # fffffb54 <__BSS_END__+0xfffd6b54>
   103f0:	129b4473          	.insn	4, 0x129b4473
   103f4:	08c12503          	lw	a0,140(sp)
   103f8:	114000a3          	sb	s4,257(zero) # 101 <main-0xff93>
   103fc:	01c12503          	lw	a0,28(sp)
   10400:	b9400083          	lb	ra,-1132(zero) # fffffb94 <__BSS_END__+0xfffd6b94>
   10404:	16ea8573          	.insn	4, 0x16ea8573
   10408:	09012503          	lw	a0,144(sp)
   1040c:	154000a3          	sb	s4,321(zero) # 141 <main-0xff53>
   10410:	1aeac673          	.insn	4, 0x1aeac673
   10414:	09412503          	lw	a0,148(sp)
   10418:	194000a3          	sb	s4,385(zero) # 181 <main-0xff13>
   1041c:	1eeb0773          	.insn	4, 0x1eeb0773
   10420:	09812503          	lw	a0,152(sp)
   10424:	1d4000a3          	sb	s4,449(zero) # 1c1 <main-0xfed3>
   10428:	22eb4873          	.insn	4, 0x22eb4873
   1042c:	09c12503          	lw	a0,156(sp)
   10430:	214000a3          	sb	s4,513(zero) # 201 <main-0xfe93>
   10434:	02c12503          	lw	a0,44(sp)
   10438:	bd400083          	lb	ra,-1068(zero) # fffffbd4 <__BSS_END__+0xfffd6bd4>
   1043c:	26fa8973          	.insn	4, 0x26fa8973
   10440:	0a012503          	lw	a0,160(sp)
   10444:	254000a3          	sb	s4,577(zero) # 241 <main-0xfe53>
   10448:	2afaca73          	.insn	4, 0x2afaca73
   1044c:	0a412503          	lw	a0,164(sp)
   10450:	294000a3          	sb	s4,641(zero) # 281 <main-0xfe13>
   10454:	2efb0b73          	.insn	4, 0x2efb0b73
   10458:	0a812503          	lw	a0,168(sp)
   1045c:	2d4000a3          	sb	s4,705(zero) # 2c1 <main-0xfdd3>
   10460:	32fb4c73          	.insn	4, 0x32fb4c73
   10464:	0ac12503          	lw	a0,172(sp)
   10468:	314000a3          	sb	s4,769(zero) # 301 <main-0xfd93>
   1046c:	03c12503          	lw	a0,60(sp)
   10470:	c1400083          	lb	ra,-1004(zero) # fffffc14 <__BSS_END__+0xfffd6c14>
   10474:	370a8d73          	.insn	4, 0x370a8d73
   10478:	0b012503          	lw	a0,176(sp)
   1047c:	354000a3          	sb	s4,833(zero) # 341 <main-0xfd53>
   10480:	3b0ace73          	.insn	4, 0x3b0ace73
   10484:	0b412503          	lw	a0,180(sp)
   10488:	394000a3          	sb	s4,897(zero) # 381 <main-0xfd13>
   1048c:	3f0b0f73          	.insn	4, 0x3f0b0f73
   10490:	0b812503          	lw	a0,184(sp)
   10494:	3d4000a3          	sb	s4,961(zero) # 3c1 <main-0xfcd3>
   10498:	430b5073          	.insn	4, 0x430b5073
   1049c:	0bc12503          	lw	a0,188(sp)
   104a0:	414000a3          	sb	s4,1025(zero) # 401 <main-0xfc93>
   104a4:	01030313          	add	t1,t1,16
   104a8:	02058593          	add	a1,a1,32
   104ac:	020e0e13          	add	t3,t3,32
   104b0:	c7f310e3          	bne	t1,t6,10110 <run_matmul+0x5c>
   104b4:	00428293          	add	t0,t0,4
   104b8:	007f0f33          	add	t5,t5,t2
   104bc:	013e8eb3          	add	t4,t4,s3
   104c0:	c52292e3          	bne	t0,s2,10104 <run_matmul+0x50>
   104c4:	0cc12403          	lw	s0,204(sp)
   104c8:	0c812483          	lw	s1,200(sp)
   104cc:	0c412903          	lw	s2,196(sp)
   104d0:	0c012983          	lw	s3,192(sp)
   104d4:	0d010113          	add	sp,sp,208
   104d8:	00008067          	ret

Disassembly of section .data:

00011000 <B>:
	...
   123c0:	0001                	.insn	2, 0x0001
	...
   13466:	0001                	.insn	2, 0x0001
	...

00019000 <A>:
	...
   204f4:	0001                	.insn	2, 0x0001
	...
   20a02:	0000                	.insn	2, 0x
   20a04:	0001                	.insn	2, 0x0001
	...

Disassembly of section .comment:

00000000 <.comment>:
   0:	3a434347          	.insn	4, 0x3a434347
   4:	2820                	.insn	2, 0x2820
   6:	31202967          	.insn	4, 0x31202967
   a:	2e322e33          	.insn	4, 0x2e322e33
   e:	0030                	.insn	2, 0x0030

Disassembly of section .riscv.attributes:

00000000 <.riscv.attributes>:
   0:	1b41                	.insn	2, 0x1b41
   2:	0000                	.insn	2, 0x
   4:	7200                	.insn	2, 0x7200
   6:	7369                	.insn	2, 0x7369
   8:	01007663          	bgeu	zero,a6,14 <main-0x10080>
   c:	0011                	.insn	2, 0x0011
   e:	0000                	.insn	2, 0x
  10:	1004                	.insn	2, 0x1004
  12:	7205                	.insn	2, 0x7205
  14:	3376                	.insn	2, 0x3376
  16:	6932                	.insn	2, 0x6932
  18:	7032                	.insn	2, 0x7032
  1a:	0031                	.insn	2, 0x0031
