
main.elf:     file format elf32-littleriscv


Disassembly of section .text:

000100b4 <main>:
   100b4:	ff010113          	addi	sp,sp,-16
   100b8:	00112623          	sw	ra,12(sp)
   100bc:	014000ef          	jal	100d0 <run_matmul>
   100c0:	00c12083          	lw	ra,12(sp)
   100c4:	00000513          	li	a0,0
   100c8:	01010113          	addi	sp,sp,16
   100cc:	00008067          	ret

000100d0 <run_matmul>:
   100d0:	f3010113          	addi	sp,sp,-208
   100d4:	0c812623          	sw	s0,204(sp)
   100d8:	0c912423          	sw	s1,200(sp)
   100dc:	00019eb7          	lui	t4,0x19
   100e0:	000214b7          	lui	s1,0x21
   100e4:	00011437          	lui	s0,0x11
   100e8:	000013b7          	lui	t2,0x1
   100ec:	0d212223          	sw	s2,196(sp)
   100f0:	0d312023          	sw	s3,192(sp)
   100f4:	000e8e93          	mv	t4,t4
   100f8:	00048493          	mv	s1,s1
   100fc:	00040413          	mv	s0,s0
   10100:	80038393          	addi	t2,t2,-2048 # 800 <main-0xf8b4>
   10104:	00000293          	li	t0,0
   10108:	00000f13          	li	t5,0
   1010c:	0d010893          	addi	a7,sp,208
   10110:	05010813          	addi	a6,sp,80
   10114:	08000f93          	li	t6,128
   10118:	000019b7          	lui	s3,0x1
   1011c:	02000913          	li	s2,32
   10120:	00048593          	mv	a1,s1
   10124:	00040e13          	mv	t3,s0
   10128:	00000313          	li	t1,0
   1012c:	01010693          	addi	a3,sp,16
   10130:	000e8613          	mv	a2,t4
   10134:	ff068793          	addi	a5,a3,-16
   10138:	00060713          	mv	a4,a2
   1013c:	00e7a023          	sw	a4,0(a5)
   10140:	00478793          	addi	a5,a5,4
   10144:	00870713          	addi	a4,a4,8
   10148:	fed79ae3          	bne	a5,a3,1013c <run_matmul+0x6c>
   1014c:	01078693          	addi	a3,a5,16
   10150:	40060613          	addi	a2,a2,1024
   10154:	fed810e3          	bne	a6,a3,10134 <run_matmul+0x64>
   10158:	00080693          	mv	a3,a6
   1015c:	000e0513          	mv	a0,t3
   10160:	00000613          	li	a2,0
   10164:	ff068793          	addi	a5,a3,-16
   10168:	00050713          	mv	a4,a0
   1016c:	00e7a023          	sw	a4,0(a5)
   10170:	00478793          	addi	a5,a5,4
   10174:	00870713          	addi	a4,a4,8
   10178:	fed79ae3          	bne	a5,a3,1016c <run_matmul+0x9c>
   1017c:	20060613          	addi	a2,a2,512
   10180:	80060713          	addi	a4,a2,-2048
   10184:	40050513          	addi	a0,a0,1024
   10188:	01078693          	addi	a3,a5,16
   1018c:	fc071ce3          	bnez	a4,10164 <run_matmul+0x94>
   10190:	09010693          	addi	a3,sp,144
   10194:	000f0613          	mv	a2,t5
   10198:	00161713          	slli	a4,a2,0x1
   1019c:	00b70733          	add	a4,a4,a1
   101a0:	ff068793          	addi	a5,a3,-16
   101a4:	00e7a023          	sw	a4,0(a5)
   101a8:	00478793          	addi	a5,a5,4
   101ac:	00870713          	addi	a4,a4,8
   101b0:	fef69ae3          	bne	a3,a5,101a4 <run_matmul+0xd4>
   101b4:	01068693          	addi	a3,a3,16
   101b8:	20060613          	addi	a2,a2,512
   101bc:	fcd89ee3          	bne	a7,a3,10198 <run_matmul+0xc8>
   101c0:	00012503          	lw	a0,0(sp)
   101c4:	45400087          	.insn	4, 0x45400087
   101c8:	04012503          	lw	a0,64(sp)
   101cc:	49400087          	.insn	4, 0x49400087
   101d0:	08012503          	lw	a0,128(sp)
   101d4:	05400087          	.insn	4, 0x05400087
   101d8:	05148077          	.insn	4, 0x05148077
   101dc:	04412503          	lw	a0,68(sp)
   101e0:	4d400087          	.insn	4, 0x4d400087
   101e4:	08412503          	lw	a0,132(sp)
   101e8:	09400087          	.insn	4, 0x09400087
   101ec:	0914c077          	.insn	4, 0x0914c077
   101f0:	04812503          	lw	a0,72(sp)
   101f4:	51400087          	.insn	4, 0x51400087
   101f8:	08812503          	lw	a0,136(sp)
   101fc:	0d400087          	.insn	4, 0x0d400087
   10200:	0d150077          	.insn	4, 0x0d150077
   10204:	04c12503          	lw	a0,76(sp)
   10208:	55400087          	.insn	4, 0x55400087
   1020c:	08c12503          	lw	a0,140(sp)
   10210:	11400087          	.insn	4, 0x11400087
   10214:	11154077          	.insn	4, 0x11154077
   10218:	01012503          	lw	a0,16(sp)
   1021c:	59400087          	.insn	4, 0x59400087
   10220:	09012503          	lw	a0,144(sp)
   10224:	15400087          	.insn	4, 0x15400087
   10228:	15648077          	.insn	4, 0x15648077
   1022c:	09412503          	lw	a0,148(sp)
   10230:	19400087          	.insn	4, 0x19400087
   10234:	1964c077          	.insn	4, 0x1964c077
   10238:	09812503          	lw	a0,152(sp)
   1023c:	1d400087          	.insn	4, 0x1d400087
   10240:	1d650077          	.insn	4, 0x1d650077
   10244:	09c12503          	lw	a0,156(sp)
   10248:	21400087          	.insn	4, 0x21400087
   1024c:	21654077          	.insn	4, 0x21654077
   10250:	02012503          	lw	a0,32(sp)
   10254:	5d400087          	.insn	4, 0x5d400087
   10258:	0a012503          	lw	a0,160(sp)
   1025c:	25400087          	.insn	4, 0x25400087
   10260:	25748077          	.insn	4, 0x25748077
   10264:	0a412503          	lw	a0,164(sp)
   10268:	29400087          	.insn	4, 0x29400087
   1026c:	2974c077          	.insn	4, 0x2974c077
   10270:	0a812503          	lw	a0,168(sp)
   10274:	2d400087          	.insn	4, 0x2d400087
   10278:	2d750077          	.insn	4, 0x2d750077
   1027c:	0ac12503          	lw	a0,172(sp)
   10280:	31400087          	.insn	4, 0x31400087
   10284:	31754077          	.insn	4, 0x31754077
   10288:	03012503          	lw	a0,48(sp)
   1028c:	61400087          	.insn	4, 0x61400087
   10290:	0b012503          	lw	a0,176(sp)
   10294:	35400087          	.insn	4, 0x35400087
   10298:	35848077          	.insn	4, 0x35848077
   1029c:	0b412503          	lw	a0,180(sp)
   102a0:	39400087          	.insn	4, 0x39400087
   102a4:	3984c077          	.insn	4, 0x3984c077
   102a8:	0b812503          	lw	a0,184(sp)
   102ac:	3d400087          	.insn	4, 0x3d400087
   102b0:	3d850077          	.insn	4, 0x3d850077
   102b4:	0bc12503          	lw	a0,188(sp)
   102b8:	41400087          	.insn	4, 0x41400087
   102bc:	41854077          	.insn	4, 0x41854077
   102c0:	00412503          	lw	a0,4(sp)
   102c4:	65400087          	.insn	4, 0x65400087
   102c8:	05012503          	lw	a0,80(sp)
   102cc:	69400087          	.insn	4, 0x69400087
   102d0:	05968177          	.insn	4, 0x05968177
   102d4:	05412503          	lw	a0,84(sp)
   102d8:	6d400087          	.insn	4, 0x6d400087
   102dc:	0996c277          	.insn	4, 0x0996c277
   102e0:	05812503          	lw	a0,88(sp)
   102e4:	71400087          	.insn	4, 0x71400087
   102e8:	0d970377          	.insn	4, 0x0d970377
   102ec:	05c12503          	lw	a0,92(sp)
   102f0:	75400087          	.insn	4, 0x75400087
   102f4:	11974477          	.insn	4, 0x11974477
   102f8:	01412503          	lw	a0,20(sp)
   102fc:	79400087          	.insn	4, 0x79400087
   10300:	15e68577          	.insn	4, 0x15e68577
   10304:	19e6c677          	.insn	4, 0x19e6c677
   10308:	1de70777          	.insn	4, 0x1de70777
   1030c:	21e74877          	.insn	4, 0x21e74877
   10310:	02412503          	lw	a0,36(sp)
   10314:	7d400087          	.insn	4, 0x7d400087
   10318:	25f68977          	.insn	4, 0x25f68977
   1031c:	29f6ca77          	.insn	4, 0x29f6ca77
   10320:	2df70b77          	.insn	4, 0x2df70b77
   10324:	31f74c77          	.insn	4, 0x31f74c77
   10328:	03412503          	lw	a0,52(sp)
   1032c:	81400087          	.insn	4, 0x81400087
   10330:	36068d77          	.insn	4, 0x36068d77
   10334:	3a06ce77          	.insn	4, 0x3a06ce77
   10338:	3e070f77          	.insn	4, 0x3e070f77
   1033c:	42075077          	.insn	4, 0x42075077
   10340:	00812503          	lw	a0,8(sp)
   10344:	85400087          	.insn	4, 0x85400087
   10348:	06012503          	lw	a0,96(sp)
   1034c:	89400087          	.insn	4, 0x89400087
   10350:	06188177          	.insn	4, 0x06188177
   10354:	06412503          	lw	a0,100(sp)
   10358:	8d400087          	.insn	4, 0x8d400087
   1035c:	0a18c277          	.insn	4, 0x0a18c277
   10360:	06812503          	lw	a0,104(sp)
   10364:	91400087          	.insn	4, 0x91400087
   10368:	0e190377          	.insn	4, 0x0e190377
   1036c:	06c12503          	lw	a0,108(sp)
   10370:	95400087          	.insn	4, 0x95400087
   10374:	12194477          	.insn	4, 0x12194477
   10378:	01812503          	lw	a0,24(sp)
   1037c:	99400087          	.insn	4, 0x99400087
   10380:	16688577          	.insn	4, 0x16688577
   10384:	1a68c677          	.insn	4, 0x1a68c677
   10388:	1e690777          	.insn	4, 0x1e690777
   1038c:	22694877          	.insn	4, 0x22694877
   10390:	02812503          	lw	a0,40(sp)
   10394:	9d400087          	.insn	4, 0x9d400087
   10398:	26788977          	.insn	4, 0x26788977
   1039c:	2a78ca77          	.insn	4, 0x2a78ca77
   103a0:	2e790b77          	.insn	4, 0x2e790b77
   103a4:	32794c77          	.insn	4, 0x32794c77
   103a8:	03812503          	lw	a0,56(sp)
   103ac:	a1400087          	.insn	4, 0xa1400087
   103b0:	36888d77          	.insn	4, 0x36888d77
   103b4:	3a88ce77          	.insn	4, 0x3a88ce77
   103b8:	3e890f77          	.insn	4, 0x3e890f77
   103bc:	42895077          	.insn	4, 0x42895077
   103c0:	00c12503          	lw	a0,12(sp)
   103c4:	a5400087          	.insn	4, 0xa5400087
   103c8:	07012503          	lw	a0,112(sp)
   103cc:	a9400087          	.insn	4, 0xa9400087
   103d0:	069a8177          	.insn	4, 0x069a8177
   103d4:	08012503          	lw	a0,128(sp)
   103d8:	054000a7          	.insn	4, 0x054000a7
   103dc:	07412503          	lw	a0,116(sp)
   103e0:	ad400087          	.insn	4, 0xad400087
   103e4:	0a9ac277          	.insn	4, 0x0a9ac277
   103e8:	08412503          	lw	a0,132(sp)
   103ec:	094000a7          	.insn	4, 0x094000a7
   103f0:	07812503          	lw	a0,120(sp)
   103f4:	b1400087          	.insn	4, 0xb1400087
   103f8:	0e9b0377          	.insn	4, 0x0e9b0377
   103fc:	08812503          	lw	a0,136(sp)
   10400:	0d4000a7          	.insn	4, 0x0d4000a7
   10404:	07c12503          	lw	a0,124(sp)
   10408:	b5400087          	.insn	4, 0xb5400087
   1040c:	129b4477          	.insn	4, 0x129b4477
   10410:	08c12503          	lw	a0,140(sp)
   10414:	114000a7          	.insn	4, 0x114000a7
   10418:	01c12503          	lw	a0,28(sp)
   1041c:	b9400087          	.insn	4, 0xb9400087
   10420:	16ea8577          	.insn	4, 0x16ea8577
   10424:	09012503          	lw	a0,144(sp)
   10428:	154000a7          	.insn	4, 0x154000a7
   1042c:	1aeac677          	.insn	4, 0x1aeac677
   10430:	09412503          	lw	a0,148(sp)
   10434:	194000a7          	.insn	4, 0x194000a7
   10438:	1eeb0777          	.insn	4, 0x1eeb0777
   1043c:	09812503          	lw	a0,152(sp)
   10440:	1d4000a7          	.insn	4, 0x1d4000a7
   10444:	22eb4877          	.insn	4, 0x22eb4877
   10448:	09c12503          	lw	a0,156(sp)
   1044c:	214000a7          	.insn	4, 0x214000a7
   10450:	02c12503          	lw	a0,44(sp)
   10454:	bd400087          	.insn	4, 0xbd400087
   10458:	26fa8977          	.insn	4, 0x26fa8977
   1045c:	0a012503          	lw	a0,160(sp)
   10460:	254000a7          	.insn	4, 0x254000a7
   10464:	2afaca77          	.insn	4, 0x2afaca77
   10468:	0a412503          	lw	a0,164(sp)
   1046c:	294000a7          	.insn	4, 0x294000a7
   10470:	2efb0b77          	.insn	4, 0x2efb0b77
   10474:	0a812503          	lw	a0,168(sp)
   10478:	2d4000a7          	.insn	4, 0x2d4000a7
   1047c:	32fb4c77          	.insn	4, 0x32fb4c77
   10480:	0ac12503          	lw	a0,172(sp)
   10484:	314000a7          	.insn	4, 0x314000a7
   10488:	03c12503          	lw	a0,60(sp)
   1048c:	c1400087          	.insn	4, 0xc1400087
   10490:	370a8d77          	.insn	4, 0x370a8d77
   10494:	0b012503          	lw	a0,176(sp)
   10498:	354000a7          	.insn	4, 0x354000a7
   1049c:	3b0ace77          	.insn	4, 0x3b0ace77
   104a0:	0b412503          	lw	a0,180(sp)
   104a4:	394000a7          	.insn	4, 0x394000a7
   104a8:	3f0b0f77          	.insn	4, 0x3f0b0f77
   104ac:	0b812503          	lw	a0,184(sp)
   104b0:	3d4000a7          	.insn	4, 0x3d4000a7
   104b4:	430b5077          	.insn	4, 0x430b5077
   104b8:	0bc12503          	lw	a0,188(sp)
   104bc:	414000a7          	.insn	4, 0x414000a7
   104c0:	01030313          	addi	t1,t1,16
   104c4:	02058593          	addi	a1,a1,32
   104c8:	020e0e13          	addi	t3,t3,32
   104cc:	c7f310e3          	bne	t1,t6,1012c <run_matmul+0x5c>
   104d0:	00428293          	addi	t0,t0,4
   104d4:	007f0f33          	add	t5,t5,t2
   104d8:	013e8eb3          	add	t4,t4,s3
   104dc:	c52292e3          	bne	t0,s2,10120 <run_matmul+0x50>
   104e0:	0cc12403          	lw	s0,204(sp)
   104e4:	0c812483          	lw	s1,200(sp)
   104e8:	0c412903          	lw	s2,196(sp)
   104ec:	0c012983          	lw	s3,192(sp)
   104f0:	0d010113          	addi	sp,sp,208
   104f4:	00008067          	ret

Disassembly of section .data:

00011000 <B>:
	...
   123c0:	0001                	.insn	2, 0x0001
	...
   13466:	0001                	.insn	2, 0x0001
	...

00019000 <A>:
	...
   204f4:	0001                	.insn	2, 0x0001
	...
   20a02:	0000                	.insn	2, 0x
   20a04:	0001                	.insn	2, 0x0001
	...

Disassembly of section .comment:

00000000 <.comment>:
   0:	3a434347          	.insn	4, 0x3a434347
   4:	2820                	.insn	2, 0x2820
   6:	36343067          	.insn	4, 0x36343067
   a:	3639                	.insn	2, 0x3639
   c:	6664                	.insn	2, 0x6664
   e:	3930                	.insn	2, 0x3930
  10:	2029                	.insn	2, 0x2029
  12:	3431                	.insn	2, 0x3431
  14:	322e                	.insn	2, 0x322e
  16:	302e                	.insn	2, 0x302e
	...

Disassembly of section .riscv.attributes:

00000000 <.riscv.attributes>:
   0:	1b41                	.insn	2, 0x1b41
   2:	0000                	.insn	2, 0x
   4:	7200                	.insn	2, 0x7200
   6:	7369                	.insn	2, 0x7369
   8:	01007663          	bgeu	zero,a6,14 <main-0x100a0>
   c:	0011                	.insn	2, 0x0011
   e:	0000                	.insn	2, 0x
  10:	1004                	.insn	2, 0x1004
  12:	7205                	.insn	2, 0x7205
  14:	3376                	.insn	2, 0x3376
  16:	6932                	.insn	2, 0x6932
  18:	7032                	.insn	2, 0x7032
  1a:	0031                	.insn	2, 0x0031
